target datalayout = "e-m:e-p270:32:32-p271:32:32-p272:64:64-i64:64-i128:128-f80:128-n8:16:32:64-S128"
target triple = "x86_64-pc-linux-gnu"

%struct.MPVEncContext = type { %struct.MpegEncContext, %struct.PutBitContext, i32, i32, ptr, i32, i32, i32, i32, i32, i32, i32, i32, ptr, ptr, %struct.FDCTDSPContext, %struct.MpegvideoEncDSPContext, %struct.PixblockDSPContext, %struct.MotionEstContext, i32, i32, ptr, ptr, ptr, ptr, ptr, ptr, [2 x [2 x [2 x ptr]]], [2 x ptr], [2 x [2 x ptr]], ptr, ptr, ptr, ptr, [3 x i64], i32, i32, i32, i32, i32, ptr, ptr, ptr, ptr, ptr, ptr, ptr, [12 x i32], ptr, ptr, ptr, ptr, ptr, ptr, ptr, ptr, [2 x i32], ptr, i32, i32, i32, i32, i32, i32, i32, i32, i32, i32, ptr, ptr, i32, i32, %struct.PutBitContext, %struct.PutBitContext, i32, i32, i32, i32, ptr, ptr, ptr, [2 x ptr], [2 x ptr], [2 x ptr], [2 x ptr], ptr, i32 }
%struct.MpegEncContext = type { ptr, i32, i32, i32, [12 x i32], i32, %struct.ScanTable, %struct.ScanTable, [64 x i8], [64 x i8], ptr, ptr, i32, i32, i32, i32, i32, i32, i32, i32, i32, i32, i32, i32, i32, i32, i32, i32, i32, i32, i32, i32, i64, i64, ptr, %struct.BufferPoolContext, i32, i32, %union.anon.0, i32, %struct.MPVWorkPicture, %struct.MPVWorkPicture, %struct.MPVWorkPicture, i32, [3 x i32], ptr, [3 x ptr], ptr, ptr, ptr, ptr, ptr, ptr, [3 x ptr], i32, ptr, ptr, ptr, ptr, %struct.ScratchpadContext, i32, i32, i32, i32, i32, i32, %struct.BlockDSPContext, %struct.H264ChromaContext, %struct.HpelDSPContext, %struct.IDCTDSPContext, %struct.QpelDSPContext, %struct.VideoDSPContext, %struct.H263DSPContext, ptr, [2 x [2 x ptr]], i32, i32, [2 x [4 x [2 x i32]]], [2 x [2 x i32]], [2 x [2 x [2 x i32]]], [2 x [64 x i16]], i32, i32, i32, i32, i32, [6 x i32], [6 x i32], [3 x ptr], ptr, [64 x i16], [64 x i16], [64 x i16], [64 x i16], i32, i32, %struct.GetBitContext, i32, i32, i32, i32, i32, i32, i32, i32, i32, i32, i32, i32, i32, i32, i32, i64, i64, i16, i16, i16, i16, i32, i32, i32, i32, i32, i32, i32, i32, i32, [3 x i32], i32, i32, i32, i32, i32, i32, %struct.GetBitContext, i32, [2 x [2 x i32]], i32, i32, i32, i32, i32, i32, i32, i32, i32, i32, i32, i32, i32, i32, [2 x i32], i32, i32, ptr, ptr, ptr, ptr, ptr, i32, i32, %struct.ERContext }
%struct.ScanTable = type { ptr, [64 x i8], [64 x i8] }
%struct.BufferPoolContext = type { ptr, ptr, ptr, ptr, ptr, i32, i32, i32 }
%union.anon.0 = type { [32 x ptr] }
%struct.MPVWorkPicture = type { [3 x ptr], [3 x i64], ptr, ptr, [2 x ptr], ptr, ptr, [2 x ptr], i32 }
%struct.ScratchpadContext = type { ptr, ptr, %union.anon.1, i32 }
%union.anon.1 = type { ptr }
%struct.BlockDSPContext = type { ptr, ptr, [2 x ptr] }
%struct.H264ChromaContext = type { [4 x ptr], [4 x ptr] }
%struct.HpelDSPContext = type { [4 x [4 x ptr]], [4 x [4 x ptr]], [4 x [4 x ptr]], [4 x ptr] }
%struct.IDCTDSPContext = type { ptr, ptr, ptr, ptr, ptr, ptr, [64 x i8], i32, i32 }
%struct.QpelDSPContext = type { [2 x [16 x ptr]], [2 x [16 x ptr]], [2 x [16 x ptr]] }
%struct.VideoDSPContext = type { ptr, ptr }
%struct.H263DSPContext = type { ptr, ptr }
%struct.GetBitContext = type { ptr, ptr, i32, i32, i32 }
%struct.ERContext = type { ptr, ptr, i32, ptr, i32, i32, i32, i64, i64, i32, i32, ptr, ptr, [3 x ptr], ptr, ptr, [2 x [4 x [2 x i32]]], %struct.ERPicture, %struct.ERPicture, %struct.ERPicture, [2 x ptr], [2 x ptr], i16, i16, i32, i32, ptr, ptr }
%struct.ERPicture = type { ptr, ptr, ptr, [2 x ptr], [2 x ptr], ptr, i32 }
%struct.FDCTDSPContext = type { ptr, ptr }
%struct.MpegvideoEncDSPContext = type { ptr, ptr, ptr, ptr, [4 x ptr], ptr }
%struct.PixblockDSPContext = type { ptr, ptr, ptr, ptr }
%struct.MotionEstContext = type { ptr, i32, i32, [4 x [2 x i32]], [4 x [2 x i32]], ptr, ptr, i32, i32, i32, i32, i32, i32, i32, i32, i32, i32, i32, i32, i32, i32, i32, i32, [4 x [4 x ptr]], [4 x [4 x ptr]], i32, i32, i64, i64, i32, [6 x ptr], [6 x ptr], [6 x ptr], [6 x ptr], [2 x [4 x ptr]], ptr, ptr, ptr, ptr, ptr, ptr, ptr, ptr, [64 x i32], [64 x i32] }
%struct.PutBitContext = type { i32, i32, ptr, ptr, ptr }
%struct.AVCodecContext = type { ptr, i32, i32, ptr, i32, i32, ptr, ptr, ptr, i64, i32, i32, ptr, i32, %struct.AVRational, %struct.AVRational, %struct.AVRational, i32, i32, i32, i32, i32, %struct.AVRational, i32, i32, i32, i32, i32, i32, i32, i32, i32, i32, i32, ptr, ptr, i32, float, float, float, float, float, float, float, float, float, i32, i32, i32, i32, i32, i32, i32, i32, i32, i32, i32, i32, ptr, ptr, ptr, i32, i32, i32, i32, i32, i32, i32, i32, i32, i32, %struct.AVChannelLayout, i32, i32, i32, i32, i32, i32, i32, i32, ptr, i32, i32, i32, float, float, i32, i32, i32, i32, i32, ptr, i64, i64, float, float, i32, i32, ptr, ptr, i32, i32, i32, i32, i32, ptr, ptr, ptr, ptr, i32, i32, [8 x i64], i32, i32, i32, i32, i32, i32, i32, ptr, ptr, i32, i32, i32, i32, i32, i32, i32, i32, i32, i32, ptr, ptr, i32, i32, ptr, ptr, ptr, ptr, i32, i32, i64, i32, i32, i64, ptr, i64, ptr, i32, ptr, i32 }
%struct.AVRational = type { i32, i32 }
%struct.AVChannelLayout = type { i32, i32, %union.anon.2, ptr }
%union.anon.2 = type { i64 }
%struct.MPVMainEncContext = type { %struct.MPVEncContext, i32, i32, i32, i32, i32, i32, [17 x ptr], [17 x ptr], i64, i64, i64, [18 x ptr], i32, i32, i32, i32, i32, float, i32, i32, i32, i32, ptr, i32, i32, i32, i32, ptr, ptr, i64, i64, i32, i32, i32, i32, i32, [5 x i32], i32, i32, %struct.RateControlContext, i32, i32, i64, i64, ptr, ptr, ptr }
%struct.RateControlContext = type { i32, ptr, double, [5 x %struct.Predictor], double, double, double, double, double, [5 x double], i64, i64, [5 x i64], [5 x i64], [5 x i64], [5 x i64], [5 x i32], i32, float, float, i32, float, float, ptr, ptr, ptr, ptr }
%struct.Predictor = type { double, double, double }
%struct.MECmpContext = type { ptr, [6 x ptr], [6 x ptr], [6 x ptr], [6 x ptr], [6 x ptr], [6 x ptr], [6 x ptr], [6 x ptr], [6 x ptr], [6 x ptr], [6 x ptr], [6 x ptr], [6 x ptr], [6 x ptr], [2 x [4 x ptr]], [6 x ptr] }

; Function Attrs: cold nounwind optsize uwtable
define internal i32 @me_cmp_init(ptr noundef %0, ptr noundef %1) #4 {
  %3 = alloca i32, align 4
  %4 = alloca ptr, align 8
  %5 = alloca ptr, align 8
  %6 = alloca ptr, align 8
  %7 = alloca %struct.MECmpContext, align 8
  %8 = alloca [6 x ptr], align 16
  %9 = alloca i32, align 4
  %10 = alloca i32, align 4
  store ptr %0, ptr %4, align 8, !tbaa !127
  store ptr %1, ptr %5, align 8, !tbaa !125
  call void @llvm.lifetime.start.p0(i64 8, ptr %6) #14
  %11 = load ptr, ptr %4, align 8, !tbaa !127
  %12 = getelementptr inbounds nuw %struct.MPVMainEncContext, ptr %11, i32 0, i32 0
  store ptr %12, ptr %6, align 8, !tbaa !4
  call void @llvm.lifetime.start.p0(i64 792, ptr %7) #14
  call void @llvm.lifetime.start.p0(i64 48, ptr %8) #14
  call void @llvm.lifetime.start.p0(i64 4, ptr %9) #14
  %13 = load ptr, ptr %5, align 8, !tbaa !125
  call void @ff_me_cmp_init(ptr noundef %7, ptr noundef %13)
  %14 = load ptr, ptr %6, align 8, !tbaa !4
  %15 = getelementptr inbounds nuw %struct.MPVEncContext, ptr %14, i32 0, i32 18
  %16 = load ptr, ptr %5, align 8, !tbaa !125
  %17 = call i32 @ff_me_init(ptr noundef %15, ptr noundef %16, ptr noundef %7, i32 noundef 1)
  store i32 %17, ptr %9, align 4, !tbaa !13
  %18 = load i32, ptr %9, align 4, !tbaa !13
  %19 = icmp slt i32 %18, 0
  br i1 %19, label %20, label %22

20:                                               ; preds = %2
  %21 = load i32, ptr %9, align 4, !tbaa !13
  store i32 %21, ptr %3, align 4
  store i32 1, ptr %10, align 4
  br label %132

22:                                               ; preds = %2
  %23 = getelementptr inbounds [6 x ptr], ptr %8, i64 0, i64 0
  %24 = load ptr, ptr %4, align 8, !tbaa !127
  %25 = getelementptr inbounds nuw %struct.MPVMainEncContext, ptr %24, i32 0, i32 27
  %26 = load i32, ptr %25, align 4, !tbaa !258
  %27 = call i32 @ff_set_cmp(ptr noundef %7, ptr noundef %23, i32 noundef %26, i32 noundef 1)
  store i32 %27, ptr %9, align 4, !tbaa !13
  %28 = load i32, ptr %9, align 4, !tbaa !13
  %29 = icmp slt i32 %28, 0
  br i1 %29, label %30, label %32

30:                                               ; preds = %22
  %31 = load i32, ptr %9, align 4, !tbaa !13
  store i32 %31, ptr %3, align 4
  store i32 1, ptr %10, align 4
  br label %132

32:                                               ; preds = %22
  %33 = getelementptr inbounds [6 x ptr], ptr %8, i64 0, i64 1
  %34 = load ptr, ptr %33, align 8, !tbaa !259
  %35 = load ptr, ptr %4, align 8, !tbaa !127
  %36 = getelementptr inbounds nuw %struct.MPVMainEncContext, ptr %35, i32 0, i32 28
  store ptr %34, ptr %36, align 8, !tbaa !260
  %37 = load ptr, ptr %5, align 8, !tbaa !125
  %38 = getelementptr inbounds nuw %struct.AVCodecContext, ptr %37, i32 0, i32 10
  %39 = load i32, ptr %38, align 8, !tbaa !156
  %40 = and i32 %39, 262144
  %41 = icmp ne i32 %40, 0
  br i1 %41, label %42, label %72

42:                                               ; preds = %32
  %43 = getelementptr inbounds [6 x ptr], ptr %8, i64 0, i64 0
  %44 = load ptr, ptr %5, align 8, !tbaa !125
  %45 = getelementptr inbounds nuw %struct.AVCodecContext, ptr %44, i32 0, i32 50
  %46 = load i32, ptr %45, align 8, !tbaa !261
  %47 = call i32 @ff_set_cmp(ptr noundef %7, ptr noundef %43, i32 noundef %46, i32 noundef 1)
  store i32 %47, ptr %9, align 4, !tbaa !13
  %48 = load i32, ptr %9, align 4, !tbaa !13
  %49 = icmp slt i32 %48, 0
  br i1 %49, label %50, label %52

50:                                               ; preds = %42
  %51 = load i32, ptr %9, align 4, !tbaa !13
  store i32 %51, ptr %3, align 4
  store i32 1, ptr %10, align 4
  br label %132

52:                                               ; preds = %42
  %53 = getelementptr inbounds [6 x ptr], ptr %8, i64 0, i64 0
  %54 = load ptr, ptr %53, align 16, !tbaa !259
  %55 = icmp ne ptr %54, null
  br i1 %55, label %56, label %60

56:                                               ; preds = %52
  %57 = getelementptr inbounds [6 x ptr], ptr %8, i64 0, i64 4
  %58 = load ptr, ptr %57, align 16, !tbaa !259
  %59 = icmp ne ptr %58, null
  br i1 %59, label %61, label %60

60:                                               ; preds = %56, %52
  store i32 -22, ptr %3, align 4
  store i32 1, ptr %10, align 4
  br label %132

61:                                               ; preds = %56
  %62 = getelementptr inbounds [6 x ptr], ptr %8, i64 0, i64 0
  %63 = load ptr, ptr %62, align 16, !tbaa !259
  %64 = load ptr, ptr %6, align 8, !tbaa !4
  %65 = getelementptr inbounds nuw %struct.MPVEncContext, ptr %64, i32 0, i32 81
  %66 = getelementptr inbounds [2 x ptr], ptr %65, i64 0, i64 0
  store ptr %63, ptr %66, align 8, !tbaa !259
  %67 = getelementptr inbounds [6 x ptr], ptr %8, i64 0, i64 4
  %68 = load ptr, ptr %67, align 16, !tbaa !259
  %69 = load ptr, ptr %6, align 8, !tbaa !4
  %70 = getelementptr inbounds nuw %struct.MPVEncContext, ptr %69, i32 0, i32 81
  %71 = getelementptr inbounds [2 x ptr], ptr %70, i64 0, i64 1
  store ptr %68, ptr %71, align 8, !tbaa !259
  br label %72

72:                                               ; preds = %61, %32
  %73 = getelementptr inbounds nuw %struct.MECmpContext, ptr %7, i32 0, i32 0
  %74 = load ptr, ptr %73, align 8, !tbaa !262
  %75 = load ptr, ptr %6, align 8, !tbaa !4
  %76 = getelementptr inbounds nuw %struct.MPVEncContext, ptr %75, i32 0, i32 85
  store ptr %74, ptr %76, align 8, !tbaa !264
  %77 = getelementptr inbounds nuw %struct.MECmpContext, ptr %7, i32 0, i32 2
  %78 = getelementptr inbounds [6 x ptr], ptr %77, i64 0, i64 0
  %79 = load ptr, ptr %78, align 8, !tbaa !259
  %80 = load ptr, ptr %6, align 8, !tbaa !4
  %81 = getelementptr inbounds nuw %struct.MPVEncContext, ptr %80, i32 0, i32 84
  %82 = getelementptr inbounds [2 x ptr], ptr %81, i64 0, i64 0
  store ptr %79, ptr %82, align 8, !tbaa !259
  %83 = getelementptr inbounds nuw %struct.MECmpContext, ptr %7, i32 0, i32 2
  %84 = getelementptr inbounds [6 x ptr], ptr %83, i64 0, i64 1
  %85 = load ptr, ptr %84, align 8, !tbaa !259
  %86 = load ptr, ptr %6, align 8, !tbaa !4
  %87 = getelementptr inbounds nuw %struct.MPVEncContext, ptr %86, i32 0, i32 84
  %88 = getelementptr inbounds [2 x ptr], ptr %87, i64 0, i64 1
  store ptr %85, ptr %88, align 8, !tbaa !259
  %89 = getelementptr inbounds nuw %struct.MECmpContext, ptr %7, i32 0, i32 1
  %90 = getelementptr inbounds [6 x ptr], ptr %89, i64 0, i64 0
  %91 = load ptr, ptr %90, align 8, !tbaa !259
  %92 = load ptr, ptr %6, align 8, !tbaa !4
  %93 = getelementptr inbounds nuw %struct.MPVEncContext, ptr %92, i32 0, i32 83
  %94 = getelementptr inbounds [2 x ptr], ptr %93, i64 0, i64 0
  store ptr %91, ptr %94, align 8, !tbaa !259
  %95 = getelementptr inbounds nuw %struct.MECmpContext, ptr %7, i32 0, i32 1
  %96 = getelementptr inbounds [6 x ptr], ptr %95, i64 0, i64 1
  %97 = load ptr, ptr %96, align 8, !tbaa !259
  %98 = load ptr, ptr %6, align 8, !tbaa !4
  %99 = getelementptr inbounds nuw %struct.MPVEncContext, ptr %98, i32 0, i32 83
  %100 = getelementptr inbounds [2 x ptr], ptr %99, i64 0, i64 1
  store ptr %97, ptr %100, align 8, !tbaa !259
  %101 = load ptr, ptr %5, align 8, !tbaa !125
  %102 = getelementptr inbounds nuw %struct.AVCodecContext, ptr %101, i32 0, i32 49
  %103 = load i32, ptr %102, align 4, !tbaa !265
  %104 = icmp eq i32 %103, 10
  br i1 %104, label %105, label %118

105:                                              ; preds = %72
  %106 = getelementptr inbounds nuw %struct.MECmpContext, ptr %7, i32 0, i32 10
  %107 = getelementptr inbounds [6 x ptr], ptr %106, i64 0, i64 0
  %108 = load ptr, ptr %107, align 8, !tbaa !259
  %109 = load ptr, ptr %6, align 8, !tbaa !4
  %110 = getelementptr inbounds nuw %struct.MPVEncContext, ptr %109, i32 0, i32 82
  %111 = getelementptr inbounds [2 x ptr], ptr %110, i64 0, i64 0
  store ptr %108, ptr %111, align 8, !tbaa !259
  %112 = getelementptr inbounds nuw %struct.MECmpContext, ptr %7, i32 0, i32 10
  %113 = getelementptr inbounds [6 x ptr], ptr %112, i64 0, i64 1
  %114 = load ptr, ptr %113, align 8, !tbaa !259
  %115 = load ptr, ptr %6, align 8, !tbaa !4
  %116 = getelementptr inbounds nuw %struct.MPVEncContext, ptr %115, i32 0, i32 82
  %117 = getelementptr inbounds [2 x ptr], ptr %116, i64 0, i64 1
  store ptr %114, ptr %117, align 8, !tbaa !259
  br label %131

118:                                              ; preds = %72
  %119 = getelementptr inbounds nuw %struct.MECmpContext, ptr %7, i32 0, i32 2
  %120 = getelementptr inbounds [6 x ptr], ptr %119, i64 0, i64 0
  %121 = load ptr, ptr %120, align 8, !tbaa !259
  %122 = load ptr, ptr %6, align 8, !tbaa !4
  %123 = getelementptr inbounds nuw %struct.MPVEncContext, ptr %122, i32 0, i32 82
  %124 = getelementptr inbounds [2 x ptr], ptr %123, i64 0, i64 0
  store ptr %121, ptr %124, align 8, !tbaa !259
  %125 = getelementptr inbounds nuw %struct.MECmpContext, ptr %7, i32 0, i32 2
  %126 = getelementptr inbounds [6 x ptr], ptr %125, i64 0, i64 1
  %127 = load ptr, ptr %126, align 8, !tbaa !259
  %128 = load ptr, ptr %6, align 8, !tbaa !4
  %129 = getelementptr inbounds nuw %struct.MPVEncContext, ptr %128, i32 0, i32 82
  %130 = getelementptr inbounds [2 x ptr], ptr %129, i64 0, i64 1
  store ptr %127, ptr %130, align 8, !tbaa !259
  br label %131

131:                                              ; preds = %118, %105
  store i32 0, ptr %3, align 4
  store i32 1, ptr %10, align 4
  br label %132

132:                                              ; preds = %131, %60, %50, %30, %20
  call void @llvm.lifetime.end.p0(i64 4, ptr %9) #14
  call void @llvm.lifetime.end.p0(i64 48, ptr %8) #14
  call void @llvm.lifetime.end.p0(i64 792, ptr %7) #14
  call void @llvm.lifetime.end.p0(i64 8, ptr %6) #14
  %133 = load i32, ptr %3, align 4
  ret i32 %133
}