; Function Attrs: cold nounwind optsize uwtable
define internal fastcc range(i32 -2147483648, 1) i32 @me_cmp_init(ptr noundef %0, ptr noundef %1) unnamed_addr #6 {
  %3 = alloca %struct.MECmpContext, align 8
  %4 = alloca [6 x ptr], align 16
  call void @llvm.lifetime.start.p0(i64 792, ptr nonnull %3) #16
  call void @llvm.lifetime.start.p0(i64 48, ptr nonnull %4) #16
  call void @ff_me_cmp_init(ptr noundef nonnull %3, ptr noundef %1) #16
  %5 = getelementptr inbounds nuw i8, ptr %0, i64 5024
  %6 = call i32 @ff_me_init(ptr noundef nonnull %5, ptr noundef %1, ptr noundef nonnull %3, i32 noundef 1) #16
  %7 = icmp slt i32 %6, 0
  br i1 %7, label %61, label %8

8:                                                ; preds = %2
  %9 = getelementptr inbounds nuw i8, ptr %0, i64 7508
  %10 = load i32, ptr %9, align 4, !tbaa !236
  %11 = call i32 @ff_set_cmp(ptr noundef nonnull %3, ptr noundef nonnull %4, i32 noundef %10, i32 noundef 1) #16
  %12 = icmp slt i32 %11, 0
  br i1 %12, label %61, label %13

13:                                               ; preds = %8
  %14 = getelementptr inbounds nuw i8, ptr %4, i64 8
  %15 = load ptr, ptr %14, align 8, !tbaa !234
  %16 = getelementptr inbounds nuw i8, ptr %0, i64 7512
  store ptr %15, ptr %16, align 8, !tbaa !237
  %17 = getelementptr inbounds nuw i8, ptr %1, i64 64
  %18 = load i32, ptr %17, align 8, !tbaa !141
  %19 = and i32 %18, 262144
  %.not = icmp eq i32 %19, 0
  br i1 %.not, label %34, label %20

20:                                               ; preds = %13
  %21 = getelementptr inbounds nuw i8, ptr %1, i64 256
  %22 = load i32, ptr %21, align 8, !tbaa !238
  %23 = call i32 @ff_set_cmp(ptr noundef nonnull %3, ptr noundef nonnull %4, i32 noundef %22, i32 noundef 1) #16
  %24 = icmp slt i32 %23, 0
  br i1 %24, label %61, label %25

25:                                               ; preds = %20
  %26 = load ptr, ptr %4, align 16, !tbaa !234
  %27 = icmp ne ptr %26, null
  %28 = getelementptr inbounds nuw i8, ptr %4, i64 32
  %29 = load ptr, ptr %28, align 16
  %30 = icmp ne ptr %29, null
  %or.cond = select i1 %27, i1 %30, i1 false
  br i1 %or.cond, label %31, label %61

31:                                               ; preds = %25
  %32 = getelementptr inbounds nuw i8, ptr %0, i64 6904
  store ptr %26, ptr %32, align 8, !tbaa !234
  %33 = getelementptr inbounds nuw i8, ptr %0, i64 6912
  store ptr %29, ptr %33, align 8, !tbaa !234
  br label %34

34:                                               ; preds = %31, %13
  %35 = load ptr, ptr %3, align 8, !tbaa !239
  %36 = getelementptr inbounds nuw i8, ptr %0, i64 6968
  store ptr %35, ptr %36, align 8, !tbaa !241
  %37 = getelementptr inbounds nuw i8, ptr %3, i64 56
  %38 = load ptr, ptr %37, align 8, !tbaa !234
  %39 = getelementptr inbounds nuw i8, ptr %0, i64 6952
  store ptr %38, ptr %39, align 8, !tbaa !234
  %40 = getelementptr inbounds nuw i8, ptr %3, i64 64
  %41 = load ptr, ptr %40, align 8, !tbaa !234
  %42 = getelementptr inbounds nuw i8, ptr %0, i64 6960
  store ptr %41, ptr %42, align 8, !tbaa !234
  %43 = getelementptr inbounds nuw i8, ptr %3, i64 8
  %44 = load ptr, ptr %43, align 8, !tbaa !234
  %45 = getelementptr inbounds nuw i8, ptr %0, i64 6936
  store ptr %44, ptr %45, align 8, !tbaa !234
  %46 = getelementptr inbounds nuw i8, ptr %3, i64 16
  %47 = load ptr, ptr %46, align 8, !tbaa !234
  %48 = getelementptr inbounds nuw i8, ptr %0, i64 6944
  store ptr %47, ptr %48, align 8, !tbaa !234
  %49 = getelementptr inbounds nuw i8, ptr %1, i64 252
  %50 = load i32, ptr %49, align 4, !tbaa !242
  %51 = icmp eq i32 %50, 10
  br i1 %51, label %52, label %58

52:                                               ; preds = %34
  %53 = getelementptr inbounds nuw i8, ptr %3, i64 440
  %54 = load ptr, ptr %53, align 8, !tbaa !234
  %55 = getelementptr inbounds nuw i8, ptr %0, i64 6920
  store ptr %54, ptr %55, align 8, !tbaa !234
  %56 = getelementptr inbounds nuw i8, ptr %3, i64 448
  %57 = load ptr, ptr %56, align 8, !tbaa !234
  br label %.sink.split

58:                                               ; preds = %34
  %59 = getelementptr inbounds nuw i8, ptr %0, i64 6920
  store ptr %38, ptr %59, align 8, !tbaa !234
  br label %.sink.split

.sink.split:                                      ; preds = %58, %52
  %.sink = phi ptr [ %57, %52 ], [ %41, %58 ]
  %60 = getelementptr inbounds nuw i8, ptr %0, i64 6928
  store ptr %.sink, ptr %60, align 8, !tbaa !234
  br label %61

61:                                               ; preds = %.sink.split, %25, %20, %8, %2
  %.0 = phi i32 [ %6, %2 ], [ %11, %8 ], [ %23, %20 ], [ -22, %25 ], [ 0, %.sink.split ]
  call void @llvm.lifetime.end.p0(i64 48, ptr nonnull %4) #16
  call void @llvm.lifetime.end.p0(i64 792, ptr nonnull %3) #16
  ret i32 %.0
}